target datalayout = "e-m:e-p270:32:32-p271:32:32-p272:64:64-i64:64-i128:128-f80:128-n8:16:32:64-S128"
target triple = "x86_64-pc-linux-gnu"

%"class.gmx::ArrayRef" = type { %"struct.gmx::ArrayRefIter", %"struct.gmx::ArrayRefIter" }
%"struct.gmx::ArrayRefIter" = type { ptr }
%union.t_iparams = type { %struct.anon.21 }
%struct.anon.21 = type { [3 x float], [3 x float], [3 x float], [3 x float] }
%struct.anon.12 = type { float, float, float }

; Function Attrs: mustprogress nounwind uwtable
define linkonce_odr noundef float @_ZSt4sqrtf(float noundef %0) #3 comdat {
  %2 = alloca float, align 4
  store float %0, ptr %2, align 4
  %3 = load float, ptr %2, align 4
  %4 = call float @sqrtf(float noundef %3) #4
  ret float %4
}

; Function Attrs: mustprogress nounwind uwtable
define linkonce_odr noundef nonnull align 4 dereferenceable(4) ptr @_ZNK3gmx12ArrayRefIterIKfEdeEv(ptr noundef nonnull align 8 dereferenceable(8) %0) #3 comdat align 2 {
  %2 = alloca ptr, align 8
  store ptr %0, ptr %2, align 8
  %3 = load ptr, ptr %2, align 8
  %4 = getelementptr inbounds %"struct.gmx::ArrayRefIter", ptr %3, i32 0, i32 0
  %5 = load ptr, ptr %4, align 8
  ret ptr %5
}

; Function Attrs: mustprogress nounwind uwtable
define linkonce_odr noundef nonnull align 8 dereferenceable(8) ptr @_ZN3gmx12ArrayRefIterIKfEpLEl(ptr noundef nonnull align 8 dereferenceable(8) %0, i64 noundef %1) #3 comdat align 2 {
  %3 = alloca ptr, align 8
  %4 = alloca i64, align 8
  store ptr %0, ptr %3, align 8
  store i64 %1, ptr %4, align 8
  %5 = load ptr, ptr %3, align 8
  %6 = load i64, ptr %4, align 8
  %7 = getelementptr inbounds %"struct.gmx::ArrayRefIter", ptr %5, i32 0, i32 0
  %8 = load ptr, ptr %7, align 8
  %9 = getelementptr inbounds float, ptr %8, i64 %6
  store ptr %9, ptr %7, align 8
  ret ptr %5
}

; Function Attrs: mustprogress nounwind uwtable
define linkonce_odr noundef nonnull align 8 dereferenceable(8) ptr @_ZNK3gmx5boost14stl_interfaces2v118iterator_interfaceINS_12ArrayRefIterIKfEESt26random_access_iterator_tagS5_RS5_PS5_lvE7derivedEv(ptr noundef nonnull align 1 dereferenceable(1) %0) #3 comdat align 2 {
  %2 = alloca ptr, align 8
  store ptr %0, ptr %2, align 8
  %3 = load ptr, ptr %2, align 8
  ret ptr %3
}

; Function Attrs: mustprogress nounwind uwtable
define internal noundef float @_ZN3gmxL7invsqrtEf(float noundef %0) #3 {
  %2 = alloca float, align 4
  store float %0, ptr %2, align 4
  %3 = load float, ptr %2, align 4
  %4 = call noundef float @_ZSt4sqrtf(float noundef %3)
  %5 = fdiv float 1.000000e+00, %4
  ret float %5
}

; Function Attrs: mustprogress nounwind uwtable
define linkonce_odr noundef float @_ZSt4cbrtf(float noundef %0) #3 comdat {
  %2 = alloca float, align 4
  store float %0, ptr %2, align 4
  %3 = load float, ptr %2, align 4
  %4 = call float @cbrtf(float noundef %3) #18
  ret float %4
}

; Function Attrs: mustprogress nounwind uwtable
define linkonce_odr noundef nonnull align 4 dereferenceable(4) ptr @_ZNK3gmx5boost14stl_interfaces2v118iterator_interfaceINS_12ArrayRefIterIKfEESt26random_access_iterator_tagS5_RS5_PS5_lvEixIS6_EEDTcmpLclsr3stdE7declvalIRT_EEfp_declsr3stdE7declvalISD_EEEl(ptr noundef nonnull align 1 dereferenceable(1) %0, i64 noundef %1) #3 comdat align 2 {
  %3 = alloca ptr, align 8
  %4 = alloca i64, align 8
  %5 = alloca %"struct.gmx::ArrayRefIter", align 8
  store ptr %0, ptr %3, align 8
  store i64 %1, ptr %4, align 8
  %6 = load ptr, ptr %3, align 8
  %7 = call noundef nonnull align 8 dereferenceable(8) ptr @_ZNK3gmx5boost14stl_interfaces2v118iterator_interfaceINS_12ArrayRefIterIKfEESt26random_access_iterator_tagS5_RS5_PS5_lvE7derivedEv(ptr noundef nonnull align 1 dereferenceable(1) %6) #4
  call void @llvm.memcpy.p0.p0.i64(ptr align 8 %5, ptr align 8 %7, i64 8, i1 false)
  %8 = load i64, ptr %4, align 8
  %9 = call noundef nonnull align 8 dereferenceable(8) ptr @_ZN3gmx12ArrayRefIterIKfEpLEl(ptr noundef nonnull align 8 dereferenceable(8) %5, i64 noundef %8) #4
  %10 = call noundef nonnull align 4 dereferenceable(4) ptr @_ZNK3gmx12ArrayRefIterIKfEdeEv(ptr noundef nonnull align 8 dereferenceable(8) %5) #4
  ret ptr %10
}

; Function Attrs: mustprogress uwtable
define internal noundef float @_ZN3gmxL12invsixthrootEf(float noundef %0) #2 {
  %2 = alloca float, align 4
  store float %0, ptr %2, align 4
  %3 = load float, ptr %2, align 4
  %4 = call noundef float @_ZSt4cbrtf(float noundef %3)
  %5 = call noundef float @_ZN3gmxL7invsqrtEf(float noundef %4)
  ret float %5
}

; Function Attrs: mustprogress nounwind uwtable
define linkonce_odr noundef nonnull align 4 dereferenceable(4) ptr @_ZNK3gmx8ArrayRefIKfEixEm(ptr noundef nonnull align 8 dereferenceable(16) %0, i64 noundef %1) #3 comdat align 2 {
  %3 = alloca ptr, align 8
  %4 = alloca i64, align 8
  store ptr %0, ptr %3, align 8
  store i64 %1, ptr %4, align 8
  %5 = load ptr, ptr %3, align 8
  %6 = getelementptr inbounds %"class.gmx::ArrayRef", ptr %5, i32 0, i32 0
  %7 = load i64, ptr %4, align 8
  %8 = call noundef nonnull align 4 dereferenceable(4) ptr @_ZNK3gmx5boost14stl_interfaces2v118iterator_interfaceINS_12ArrayRefIterIKfEESt26random_access_iterator_tagS5_RS5_PS5_lvEixIS6_EEDTcmpLclsr3stdE7declvalIRT_EEfp_declsr3stdE7declvalISD_EEEl(ptr noundef nonnull align 1 dereferenceable(1) %6, i64 noundef %7) #4
  ret ptr %8
}

; Function Attrs: mustprogress uwtable
define internal noundef float @_ZN12_GLOBAL__N_19thole_polIL18BondedKernelFlavor0EEEfiPKiPK9t_iparamsPA3_KfPA4_fPA3_fPK5t_pbcfPfN3gmx8ArrayRefIS7_EEP8t_fcdataP12t_disresdataP12t_oriresdataPi(i32 noundef %0, ptr noundef %1, ptr noundef %2, ptr noundef %3, ptr noundef %4, ptr noundef %5, ptr noundef %6, float noundef %7, ptr noundef %8, ptr noundef byval(%"class.gmx::ArrayRef") align 8 %9, ptr noundef %10, ptr noundef %11, ptr noundef %12, ptr noundef %13) #2 {
  %15 = alloca i32, align 4
  %16 = alloca ptr, align 8
  %17 = alloca ptr, align 8
  %18 = alloca ptr, align 8
  %19 = alloca ptr, align 8
  %20 = alloca ptr, align 8
  %21 = alloca ptr, align 8
  %22 = alloca float, align 4
  %23 = alloca ptr, align 8
  %24 = alloca ptr, align 8
  %25 = alloca ptr, align 8
  %26 = alloca ptr, align 8
  %27 = alloca ptr, align 8
  %28 = alloca i32, align 4
  %29 = alloca i32, align 4
  %30 = alloca i32, align 4
  %31 = alloca i32, align 4
  %32 = alloca i32, align 4
  %33 = alloca i32, align 4
  %34 = alloca float, align 4
  %35 = alloca float, align 4
  %36 = alloca float, align 4
  %37 = alloca float, align 4
  %38 = alloca float, align 4
  %39 = alloca float, align 4
  %40 = alloca float, align 4
  %41 = alloca float, align 4
  store i32 %0, ptr %15, align 4
  store ptr %1, ptr %16, align 8
  store ptr %2, ptr %17, align 8
  store ptr %3, ptr %18, align 8
  store ptr %4, ptr %19, align 8
  store ptr %5, ptr %20, align 8
  store ptr %6, ptr %21, align 8
  store float %7, ptr %22, align 4
  store ptr %8, ptr %23, align 8
  store ptr %10, ptr %24, align 8
  store ptr %11, ptr %25, align 8
  store ptr %12, ptr %26, align 8
  store ptr %13, ptr %27, align 8
  store float 0.000000e+00, ptr %41, align 4
  store i32 0, ptr %28, align 4
  br label %42

42:                                               ; preds = %46, %14
  %43 = load i32, ptr %28, align 4
  %44 = load i32, ptr %15, align 4
  %45 = icmp slt i32 %43, %44
  br i1 %45, label %46, label %222

46:                                               ; preds = %42
  %47 = load ptr, ptr %16, align 8
  %48 = load i32, ptr %28, align 4
  %49 = add nsw i32 %48, 1
  store i32 %49, ptr %28, align 4
  %50 = sext i32 %48 to i64
  %51 = getelementptr inbounds i32, ptr %47, i64 %50
  %52 = load i32, ptr %51, align 4
  store i32 %52, ptr %29, align 4
  %53 = load ptr, ptr %16, align 8
  %54 = load i32, ptr %28, align 4
  %55 = add nsw i32 %54, 1
  store i32 %55, ptr %28, align 4
  %56 = sext i32 %54 to i64
  %57 = getelementptr inbounds i32, ptr %53, i64 %56
  %58 = load i32, ptr %57, align 4
  store i32 %58, ptr %30, align 4
  %59 = load ptr, ptr %16, align 8
  %60 = load i32, ptr %28, align 4
  %61 = add nsw i32 %60, 1
  store i32 %61, ptr %28, align 4
  %62 = sext i32 %60 to i64
  %63 = getelementptr inbounds i32, ptr %59, i64 %62
  %64 = load i32, ptr %63, align 4
  store i32 %64, ptr %31, align 4
  %65 = load ptr, ptr %16, align 8
  %66 = load i32, ptr %28, align 4
  %67 = add nsw i32 %66, 1
  store i32 %67, ptr %28, align 4
  %68 = sext i32 %66 to i64
  %69 = getelementptr inbounds i32, ptr %65, i64 %68
  %70 = load i32, ptr %69, align 4
  store i32 %70, ptr %32, align 4
  %71 = load ptr, ptr %16, align 8
  %72 = load i32, ptr %28, align 4
  %73 = add nsw i32 %72, 1
  store i32 %73, ptr %28, align 4
  %74 = sext i32 %72 to i64
  %75 = getelementptr inbounds i32, ptr %71, i64 %74
  %76 = load i32, ptr %75, align 4
  store i32 %76, ptr %33, align 4
  %77 = load i32, ptr %31, align 4
  %78 = sext i32 %77 to i64
  %79 = call noundef nonnull align 4 dereferenceable(4) ptr @_ZNK3gmx8ArrayRefIKfEixEm(ptr noundef nonnull align 8 dereferenceable(16) %9, i64 noundef %78)
  %80 = load float, ptr %79, align 4
  store float %80, ptr %34, align 4
  %81 = load i32, ptr %33, align 4
  %82 = sext i32 %81 to i64
  %83 = call noundef nonnull align 4 dereferenceable(4) ptr @_ZNK3gmx8ArrayRefIKfEixEm(ptr noundef nonnull align 8 dereferenceable(16) %9, i64 noundef %82)
  %84 = load float, ptr %83, align 4
  store float %84, ptr %35, align 4
  %85 = load ptr, ptr %17, align 8
  %86 = load i32, ptr %29, align 4
  %87 = sext i32 %86 to i64
  %88 = getelementptr inbounds %union.t_iparams, ptr %85, i64 %87
  %89 = getelementptr inbounds %struct.anon.12, ptr %88, i32 0, i32 0
  %90 = load float, ptr %89, align 4
  store float %90, ptr %37, align 4
  %91 = load ptr, ptr %17, align 8
  %92 = load i32, ptr %29, align 4
  %93 = sext i32 %92 to i64
  %94 = getelementptr inbounds %union.t_iparams, ptr %91, i64 %93
  %95 = getelementptr inbounds %struct.anon.12, ptr %94, i32 0, i32 1
  %96 = load float, ptr %95, align 4
  store float %96, ptr %38, align 4
  %97 = load ptr, ptr %17, align 8
  %98 = load i32, ptr %29, align 4
  %99 = sext i32 %98 to i64
  %100 = getelementptr inbounds %union.t_iparams, ptr %97, i64 %99
  %101 = getelementptr inbounds %struct.anon.12, ptr %100, i32 0, i32 2
  %102 = load float, ptr %101, align 4
  store float %102, ptr %39, align 4
  %103 = load float, ptr %34, align 4
  %104 = load float, ptr %35, align 4
  %105 = fmul float %103, %104
  store float %105, ptr %36, align 4
  %106 = load float, ptr %37, align 4
  %107 = load float, ptr %38, align 4
  %108 = load float, ptr %39, align 4
  %109 = fmul float %107, %108
  %110 = call noundef float @_ZN3gmxL12invsixthrootEf(float noundef %109)
  %111 = fmul float %106, %110
  store float %111, ptr %40, align 4
  %112 = load ptr, ptr %18, align 8
  %113 = load i32, ptr %30, align 4
  %114 = sext i32 %113 to i64
  %115 = getelementptr inbounds [3 x float], ptr %112, i64 %114
  %116 = getelementptr inbounds [3 x float], ptr %115, i64 0, i64 0
  %117 = load ptr, ptr %18, align 8
  %118 = load i32, ptr %32, align 4
  %119 = sext i32 %118 to i64
  %120 = getelementptr inbounds [3 x float], ptr %117, i64 %119
  %121 = getelementptr inbounds [3 x float], ptr %120, i64 0, i64 0
  %122 = load ptr, ptr %19, align 8
  %123 = load i32, ptr %30, align 4
  %124 = sext i32 %123 to i64
  %125 = getelementptr inbounds [4 x float], ptr %122, i64 %124
  %126 = getelementptr inbounds [4 x float], ptr %125, i64 0, i64 0
  %127 = load ptr, ptr %19, align 8
  %128 = load i32, ptr %32, align 4
  %129 = sext i32 %128 to i64
  %130 = getelementptr inbounds [4 x float], ptr %127, i64 %129
  %131 = getelementptr inbounds [4 x float], ptr %130, i64 0, i64 0
  %132 = load ptr, ptr %21, align 8
  %133 = load float, ptr %36, align 4
  %134 = load ptr, ptr %20, align 8
  %135 = load float, ptr %40, align 4
  %136 = call noundef float @_ZN12_GLOBAL__N_110do_1_tholeIL18BondedKernelFlavor0EEEfPKfS3_PfS4_PK5t_pbcfPA3_ff(ptr noundef %116, ptr noundef %121, ptr noundef %126, ptr noundef %131, ptr noundef %132, float noundef %133, ptr noundef %134, float noundef %135)
  %137 = load float, ptr %41, align 4
  %138 = fadd float %137, %136
  store float %138, ptr %41, align 4
  %139 = load ptr, ptr %18, align 8
  %140 = load i32, ptr %31, align 4
  %141 = sext i32 %140 to i64
  %142 = getelementptr inbounds [3 x float], ptr %139, i64 %141
  %143 = getelementptr inbounds [3 x float], ptr %142, i64 0, i64 0
  %144 = load ptr, ptr %18, align 8
  %145 = load i32, ptr %32, align 4
  %146 = sext i32 %145 to i64
  %147 = getelementptr inbounds [3 x float], ptr %144, i64 %146
  %148 = getelementptr inbounds [3 x float], ptr %147, i64 0, i64 0
  %149 = load ptr, ptr %19, align 8
  %150 = load i32, ptr %31, align 4
  %151 = sext i32 %150 to i64
  %152 = getelementptr inbounds [4 x float], ptr %149, i64 %151
  %153 = getelementptr inbounds [4 x float], ptr %152, i64 0, i64 0
  %154 = load ptr, ptr %19, align 8
  %155 = load i32, ptr %32, align 4
  %156 = sext i32 %155 to i64
  %157 = getelementptr inbounds [4 x float], ptr %154, i64 %156
  %158 = getelementptr inbounds [4 x float], ptr %157, i64 0, i64 0
  %159 = load ptr, ptr %21, align 8
  %160 = load float, ptr %36, align 4
  %161 = fneg float %160
  %162 = load ptr, ptr %20, align 8
  %163 = load float, ptr %40, align 4
  %164 = call noundef float @_ZN12_GLOBAL__N_110do_1_tholeIL18BondedKernelFlavor0EEEfPKfS3_PfS4_PK5t_pbcfPA3_ff(ptr noundef %143, ptr noundef %148, ptr noundef %153, ptr noundef %158, ptr noundef %159, float noundef %161, ptr noundef %162, float noundef %163)
  %165 = load float, ptr %41, align 4
  %166 = fadd float %165, %164
  store float %166, ptr %41, align 4
  %167 = load ptr, ptr %18, align 8
  %168 = load i32, ptr %30, align 4
  %169 = sext i32 %168 to i64
  %170 = getelementptr inbounds [3 x float], ptr %167, i64 %169
  %171 = getelementptr inbounds [3 x float], ptr %170, i64 0, i64 0
  %172 = load ptr, ptr %18, align 8
  %173 = load i32, ptr %33, align 4
  %174 = sext i32 %173 to i64
  %175 = getelementptr inbounds [3 x float], ptr %172, i64 %174
  %176 = getelementptr inbounds [3 x float], ptr %175, i64 0, i64 0
  %177 = load ptr, ptr %19, align 8
  %178 = load i32, ptr %30, align 4
  %179 = sext i32 %178 to i64
  %180 = getelementptr inbounds [4 x float], ptr %177, i64 %179
  %181 = getelementptr inbounds [4 x float], ptr %180, i64 0, i64 0
  %182 = load ptr, ptr %19, align 8
  %183 = load i32, ptr %33, align 4
  %184 = sext i32 %183 to i64
  %185 = getelementptr inbounds [4 x float], ptr %182, i64 %184
  %186 = getelementptr inbounds [4 x float], ptr %185, i64 0, i64 0
  %187 = load ptr, ptr %21, align 8
  %188 = load float, ptr %36, align 4
  %189 = fneg float %188
  %190 = load ptr, ptr %20, align 8
  %191 = load float, ptr %40, align 4
  %192 = call noundef float @_ZN12_GLOBAL__N_110do_1_tholeIL18BondedKernelFlavor0EEEfPKfS3_PfS4_PK5t_pbcfPA3_ff(ptr noundef %171, ptr noundef %176, ptr noundef %181, ptr noundef %186, ptr noundef %187, float noundef %189, ptr noundef %190, float noundef %191)
  %193 = load float, ptr %41, align 4
  %194 = fadd float %193, %192
  store float %194, ptr %41, align 4
  %195 = load ptr, ptr %18, align 8
  %196 = load i32, ptr %31, align 4
  %197 = sext i32 %196 to i64
  %198 = getelementptr inbounds [3 x float], ptr %195, i64 %197
  %199 = getelementptr inbounds [3 x float], ptr %198, i64 0, i64 0
  %200 = load ptr, ptr %18, align 8
  %201 = load i32, ptr %33, align 4
  %202 = sext i32 %201 to i64
  %203 = getelementptr inbounds [3 x float], ptr %200, i64 %202
  %204 = getelementptr inbounds [3 x float], ptr %203, i64 0, i64 0
  %205 = load ptr, ptr %19, align 8
  %206 = load i32, ptr %31, align 4
  %207 = sext i32 %206 to i64
  %208 = getelementptr inbounds [4 x float], ptr %205, i64 %207
  %209 = getelementptr inbounds [4 x float], ptr %208, i64 0, i64 0
  %210 = load ptr, ptr %19, align 8
  %211 = load i32, ptr %33, align 4
  %212 = sext i32 %211 to i64
  %213 = getelementptr inbounds [4 x float], ptr %210, i64 %212
  %214 = getelementptr inbounds [4 x float], ptr %213, i64 0, i64 0
  %215 = load ptr, ptr %21, align 8
  %216 = load float, ptr %36, align 4
  %217 = load ptr, ptr %20, align 8
  %218 = load float, ptr %40, align 4
  %219 = call noundef float @_ZN12_GLOBAL__N_110do_1_tholeIL18BondedKernelFlavor0EEEfPKfS3_PfS4_PK5t_pbcfPA3_ff(ptr noundef %199, ptr noundef %204, ptr noundef %209, ptr noundef %214, ptr noundef %215, float noundef %216, ptr noundef %217, float noundef %218)
  %220 = load float, ptr %41, align 4
  %221 = fadd float %220, %219
  store float %221, ptr %41, align 4
  br label %42, !llvm.loop !60

222:                                              ; preds = %42
  %223 = load float, ptr %41, align 4
  ret float %223
}