; Function Attrs: mustprogress uwtable
define internal noundef float @_ZN12_GLOBAL__N_19thole_polIL18BondedKernelFlavor0EEEfiPKiPK9t_iparamsPA3_KfPA4_fPA3_fPK5t_pbcfPfN3gmx8ArrayRefIS7_EEP8t_fcdataP12t_disresdataP12t_oriresdataPi(i32 noundef %0, ptr nocapture noundef readonly %1, ptr nocapture noundef readonly %2, ptr noundef %3, ptr nocapture noundef %4, ptr nocapture readnone %5, ptr noundef %6, float %7, ptr nocapture readnone %8, ptr nocapture noundef readonly byval(%"class.gmx::ArrayRef") align 8 %9, ptr nocapture readnone %10, ptr nocapture readnone %11, ptr nocapture readnone %12, ptr nocapture readnone %13) #4 {
  %invariant.gep = getelementptr i8, ptr %1, i64 16
  %15 = icmp sgt i32 %0, 0
  br i1 %15, label %.lr.ph, label %._crit_edge

.lr.ph:                                           ; preds = %14
  %16 = load i64, ptr %9, align 8
  %17 = inttoptr i64 %16 to ptr
  br label %18

18:                                               ; preds = %.lr.ph, %18
  %indvars.iv = phi i64 [ 0, %.lr.ph ], [ %indvars.iv.next, %18 ]
  %.079 = phi float [ 0.000000e+00, %.lr.ph ], [ %65, %18 ]
  %19 = getelementptr inbounds i32, ptr %1, i64 %indvars.iv
  %20 = load i32, ptr %19, align 4
  %21 = getelementptr i8, ptr %19, i64 4
  %22 = load i32, ptr %21, align 4
  %23 = getelementptr i8, ptr %19, i64 8
  %24 = load i32, ptr %23, align 4
  %25 = getelementptr i8, ptr %19, i64 12
  %26 = load i32, ptr %25, align 4
  %indvars.iv.next = add nuw nsw i64 %indvars.iv, 5
  %gep = getelementptr i32, ptr %invariant.gep, i64 %indvars.iv
  %27 = load i32, ptr %gep, align 4
  %28 = sext i32 %24 to i64
  %29 = getelementptr inbounds float, ptr %17, i64 %28
  %30 = load float, ptr %29, align 4
  %31 = sext i32 %27 to i64
  %32 = getelementptr inbounds float, ptr %17, i64 %31
  %33 = load float, ptr %32, align 4
  %34 = sext i32 %20 to i64
  %35 = getelementptr inbounds %union.t_iparams, ptr %2, i64 %34
  %36 = load float, ptr %35, align 4
  %37 = getelementptr inbounds i8, ptr %35, i64 4
  %38 = load float, ptr %37, align 4
  %39 = getelementptr inbounds i8, ptr %35, i64 8
  %40 = load float, ptr %39, align 4
  %41 = fmul float %30, %33
  %42 = fmul float %38, %40
  %43 = tail call noundef float @cbrtf(float noundef %42) #25
  %44 = tail call noundef float @sqrtf(float noundef %43) #22
  %45 = fdiv float 1.000000e+00, %44
  %46 = fmul float %36, %45
  %47 = sext i32 %22 to i64
  %48 = getelementptr inbounds [3 x float], ptr %3, i64 %47
  %49 = sext i32 %26 to i64
  %50 = getelementptr inbounds [3 x float], ptr %3, i64 %49
  %51 = getelementptr inbounds [4 x float], ptr %4, i64 %47
  %52 = getelementptr inbounds [4 x float], ptr %4, i64 %49
  %53 = tail call fastcc noundef float @_ZN12_GLOBAL__N_110do_1_tholeIL18BondedKernelFlavor0EEEfPKfS3_PfS4_PK5t_pbcfPA3_ff(ptr noundef %48, ptr noundef %50, ptr noundef %51, ptr noundef %52, ptr noundef %6, float noundef %41, float noundef %46)
  %54 = fadd float %.079, %53
  %55 = getelementptr inbounds [3 x float], ptr %3, i64 %28
  %56 = getelementptr inbounds [4 x float], ptr %4, i64 %28
  %57 = fneg float %41
  %58 = tail call fastcc noundef float @_ZN12_GLOBAL__N_110do_1_tholeIL18BondedKernelFlavor0EEEfPKfS3_PfS4_PK5t_pbcfPA3_ff(ptr noundef %55, ptr noundef %50, ptr noundef %56, ptr noundef %52, ptr noundef %6, float noundef %57, float noundef %46)
  %59 = fadd float %54, %58
  %60 = getelementptr inbounds [3 x float], ptr %3, i64 %31
  %61 = getelementptr inbounds [4 x float], ptr %4, i64 %31
  %62 = tail call fastcc noundef float @_ZN12_GLOBAL__N_110do_1_tholeIL18BondedKernelFlavor0EEEfPKfS3_PfS4_PK5t_pbcfPA3_ff(ptr noundef %48, ptr noundef %60, ptr noundef %51, ptr noundef %61, ptr noundef %6, float noundef %57, float noundef %46)
  %63 = fadd float %59, %62
  %64 = tail call fastcc noundef float @_ZN12_GLOBAL__N_110do_1_tholeIL18BondedKernelFlavor0EEEfPKfS3_PfS4_PK5t_pbcfPA3_ff(ptr noundef %55, ptr noundef %60, ptr noundef %56, ptr noundef %61, ptr noundef %6, float noundef %41, float noundef %46)
  %65 = fadd float %63, %64
  %66 = trunc nuw i64 %indvars.iv.next to i32
  %67 = icmp slt i32 %66, %0
  br i1 %67, label %18, label %._crit_edge, !llvm.loop !61

._crit_edge:                                      ; preds = %18, %14
  %.0.lcssa = phi float [ 0.000000e+00, %14 ], [ %65, %18 ]
  ret float %.0.lcssa
}